target datalayout = "e-m:e-p270:32:32-p271:32:32-p272:64:64-i64:64-i128:128-f80:128-n8:16:32:64-S128"
target triple = "x86_64-pc-linux-gnu"

%class.MarkedFileReader = type { %class.FileReader, i64 }
%class.FileReader = type { ptr, ptr }
%"class.DwarfFile::MarkedDwarfFileReader" = type { %class.MarkedFileReader, i64, i64 }
%"class.DwarfFile::LineNumberProgram" = type <{ ptr, %"class.DwarfFile::MarkedDwarfFileReader", %"struct.DwarfFile::LineNumberProgram::LineNumberProgramHeader", ptr, i32, [4 x i8], i64, i8, [7 x i8] }>
%"struct.DwarfFile::LineNumberProgram::LineNumberProgramHeader" = type { i32, i16, i32, i8, i8, i8, i8, i8, i8, [12 x i8], i64 }
%"struct.DwarfFile::LineNumberProgram::LineNumberProgramState" = type { i64, i32, i32, i32, i32, i8, i8, i8, i8, i8, i32, i32, i16, i8, i8, i8, i8, i8, i8 }

; Function Attrs: mustprogress nounwind uwtable
define hidden noundef zeroext i1 @_ZNK9DwarfFile21MarkedDwarfFileReader14has_bytes_leftEv(ptr noundef nonnull align 8 dereferenceable(40) %0) #1 align 2 {
  %2 = alloca i1, align 1
  %3 = alloca ptr, align 8
  store ptr %0, ptr %3, align 8
  %4 = load ptr, ptr %3, align 8
  %5 = getelementptr inbounds %"class.DwarfFile::MarkedDwarfFileReader", ptr %4, i32 0, i32 2
  %6 = load i64, ptr %5, align 8
  %7 = icmp eq i64 %6, -1
  br i1 %7, label %8, label %9

8:                                                ; preds = %1
  store i1 false, ptr %2, align 1
  br label %15

9:                                                ; preds = %1
  %10 = getelementptr inbounds %"class.DwarfFile::MarkedDwarfFileReader", ptr %4, i32 0, i32 1
  %11 = load i64, ptr %10, align 8
  %12 = getelementptr inbounds %"class.DwarfFile::MarkedDwarfFileReader", ptr %4, i32 0, i32 2
  %13 = load i64, ptr %12, align 8
  %14 = icmp slt i64 %11, %13
  store i1 %14, ptr %2, align 1
  br label %15

15:                                               ; preds = %9, %8
  %16 = load i1, ptr %2, align 1
  ret i1 %16
}

; Function Attrs: mustprogress nounwind uwtable
define hidden void @_ZN9DwarfFile17LineNumberProgram26print_and_store_prev_entryEjj(ptr noundef nonnull align 8 dereferenceable(113) %0, i32 noundef %1, i32 noundef %2) #1 align 2 {
  %4 = alloca ptr, align 8
  %5 = alloca i32, align 4
  %6 = alloca i32, align 4
  store ptr %0, ptr %4, align 8
  store i32 %1, ptr %5, align 4
  store i32 %2, ptr %6, align 4
  %7 = load ptr, ptr %4, align 8
  %8 = load i32, ptr %5, align 4
  %9 = getelementptr inbounds %"class.DwarfFile::LineNumberProgram", ptr %7, i32 0, i32 3
  %10 = load ptr, ptr %9, align 8
  %11 = getelementptr inbounds %"struct.DwarfFile::LineNumberProgram::LineNumberProgramState", ptr %10, i32 0, i32 2
  store i32 %8, ptr %11, align 4
  %12 = load i32, ptr %6, align 4
  %13 = getelementptr inbounds %"class.DwarfFile::LineNumberProgram", ptr %7, i32 0, i32 3
  %14 = load ptr, ptr %13, align 8
  %15 = getelementptr inbounds %"struct.DwarfFile::LineNumberProgram::LineNumberProgramState", ptr %14, i32 0, i32 3
  store i32 %12, ptr %15, align 8
  ret void
}

; Function Attrs: mustprogress nounwind uwtable
define hidden noundef zeroext i1 @_ZN9DwarfFile17LineNumberProgram23does_offset_match_entryEmjj(ptr noundef nonnull align 8 dereferenceable(113) %0, i64 noundef %1, i32 noundef %2, i32 noundef %3) #1 align 2 {
  %5 = alloca i1, align 1
  %6 = alloca ptr, align 8
  %7 = alloca i64, align 8
  %8 = alloca i32, align 4
  %9 = alloca i32, align 4
  %10 = alloca i8, align 1
  store ptr %0, ptr %6, align 8
  store i64 %1, ptr %7, align 8
  store i32 %2, ptr %8, align 4
  store i32 %3, ptr %9, align 4
  %11 = load ptr, ptr %6, align 8
  %12 = getelementptr inbounds %"class.DwarfFile::LineNumberProgram", ptr %11, i32 0, i32 3
  %13 = load ptr, ptr %12, align 8
  %14 = getelementptr inbounds %"struct.DwarfFile::LineNumberProgram::LineNumberProgramState", ptr %13, i32 0, i32 17
  %15 = load i8, ptr %14, align 2
  %16 = trunc i8 %15 to i1
  br i1 %16, label %17, label %74

17:                                               ; preds = %4
  %18 = getelementptr inbounds %"class.DwarfFile::LineNumberProgram", ptr %11, i32 0, i32 4
  %19 = load i32, ptr %18, align 8
  %20 = zext i32 %19 to i64
  %21 = getelementptr inbounds %"class.DwarfFile::LineNumberProgram", ptr %11, i32 0, i32 3
  %22 = load ptr, ptr %21, align 8
  %23 = getelementptr inbounds %"struct.DwarfFile::LineNumberProgram::LineNumberProgramState", ptr %22, i32 0, i32 0
  %24 = load i64, ptr %23, align 8
  %25 = icmp eq i64 %20, %24
  %26 = zext i1 %25 to i8
  store i8 %26, ptr %10, align 1
  %27 = load i8, ptr %10, align 1
  %28 = trunc i8 %27 to i1
  br i1 %28, label %44, label %29

29:                                               ; preds = %17
  %30 = getelementptr inbounds %"class.DwarfFile::LineNumberProgram", ptr %11, i32 0, i32 4
  %31 = load i32, ptr %30, align 8
  %32 = zext i32 %31 to i64
  %33 = load i64, ptr %7, align 8
  %34 = icmp ugt i64 %32, %33
  br i1 %34, label %35, label %63

35:                                               ; preds = %29
  %36 = getelementptr inbounds %"class.DwarfFile::LineNumberProgram", ptr %11, i32 0, i32 4
  %37 = load i32, ptr %36, align 8
  %38 = zext i32 %37 to i64
  %39 = getelementptr inbounds %"class.DwarfFile::LineNumberProgram", ptr %11, i32 0, i32 3
  %40 = load ptr, ptr %39, align 8
  %41 = getelementptr inbounds %"struct.DwarfFile::LineNumberProgram::LineNumberProgramState", ptr %40, i32 0, i32 0
  %42 = load i64, ptr %41, align 8
  %43 = icmp ult i64 %38, %42
  br i1 %43, label %44, label %63

44:                                               ; preds = %35, %17
  %45 = getelementptr inbounds %"class.DwarfFile::LineNumberProgram", ptr %11, i32 0, i32 3
  %46 = load ptr, ptr %45, align 8
  %47 = getelementptr inbounds %"struct.DwarfFile::LineNumberProgram::LineNumberProgramState", ptr %46, i32 0, i32 18
  store i8 1, ptr %47, align 1
  %48 = load i8, ptr %10, align 1
  %49 = trunc i8 %48 to i1
  br i1 %49, label %50, label %54

50:                                               ; preds = %44
  %51 = getelementptr inbounds %"class.DwarfFile::LineNumberProgram", ptr %11, i32 0, i32 7
  %52 = load i8, ptr %51, align 8
  %53 = trunc i8 %52 to i1
  br i1 %53, label %54, label %57

54:                                               ; preds = %50, %44
  %55 = load i32, ptr %8, align 4
  %56 = load i32, ptr %9, align 4
  call void @_ZN9DwarfFile17LineNumberProgram26print_and_store_prev_entryEjj(ptr noundef nonnull align 8 dereferenceable(113) %11, i32 noundef %55, i32 noundef %56)
  store i1 true, ptr %5, align 1
  br label %75

57:                                               ; preds = %50
  %58 = getelementptr inbounds %"class.DwarfFile::LineNumberProgram", ptr %11, i32 0, i32 1
  %59 = call noundef zeroext i1 @_ZNK9DwarfFile21MarkedDwarfFileReader14has_bytes_leftEv(ptr noundef nonnull align 8 dereferenceable(40) %58)
  br i1 %59, label %61, label %60

60:                                               ; preds = %57
  store i1 true, ptr %5, align 1
  br label %75

61:                                               ; preds = %57
  br label %62

62:                                               ; preds = %61
  br label %73

63:                                               ; preds = %35, %29
  %64 = getelementptr inbounds %"class.DwarfFile::LineNumberProgram", ptr %11, i32 0, i32 3
  %65 = load ptr, ptr %64, align 8
  %66 = getelementptr inbounds %"struct.DwarfFile::LineNumberProgram::LineNumberProgramState", ptr %65, i32 0, i32 18
  %67 = load i8, ptr %66, align 1
  %68 = trunc i8 %67 to i1
  br i1 %68, label %69, label %72

69:                                               ; preds = %63
  %70 = load i32, ptr %8, align 4
  %71 = load i32, ptr %9, align 4
  call void @_ZN9DwarfFile17LineNumberProgram26print_and_store_prev_entryEjj(ptr noundef nonnull align 8 dereferenceable(113) %11, i32 noundef %70, i32 noundef %71)
  store i1 true, ptr %5, align 1
  br label %75

72:                                               ; preds = %63
  br label %73

73:                                               ; preds = %72, %62
  br label %74

74:                                               ; preds = %73, %4
  store i1 false, ptr %5, align 1
  br label %75

75:                                               ; preds = %74, %69, %60, %54
  %76 = load i1, ptr %5, align 1
  ret i1 %76
}