; Function Attrs: mustprogress nofree norecurse nosync nounwind willreturn memory(readwrite, inaccessiblemem: none) uwtable
define hidden noundef zeroext i1 @_ZN9DwarfFile17LineNumberProgram23does_offset_match_entryEmjj(ptr nocapture noundef nonnull readonly align 8 dereferenceable(113) %0, i64 noundef %1, i32 noundef %2, i32 noundef %3) local_unnamed_addr #12 align 2 {
  %5 = getelementptr inbounds i8, ptr %0, i64 88
  %6 = load ptr, ptr %5, align 8
  %7 = getelementptr inbounds i8, ptr %6, i64 46
  %8 = load i8, ptr %7, align 2
  %9 = trunc i8 %8 to i1
  br i1 %9, label %10, label %44

10:                                               ; preds = %4
  %11 = getelementptr inbounds i8, ptr %0, i64 96
  %12 = load i32, ptr %11, align 8
  %13 = zext i32 %12 to i64
  %14 = load i64, ptr %6, align 8
  %15 = icmp eq i64 %14, %13
  br i1 %15, label %.critedge, label %16

16:                                               ; preds = %10
  %17 = icmp ugt i64 %13, %1
  %18 = icmp ugt i64 %14, %13
  %or.cond = and i1 %17, %18
  %19 = getelementptr inbounds i8, ptr %6, i64 47
  br i1 %or.cond, label %20, label %37

20:                                               ; preds = %16
  store i8 1, ptr %19, align 1
  br label %25

.critedge:                                        ; preds = %10
  %21 = getelementptr inbounds i8, ptr %6, i64 47
  store i8 1, ptr %21, align 1
  %22 = getelementptr inbounds i8, ptr %0, i64 112
  %23 = load i8, ptr %22, align 8
  %24 = trunc i8 %23 to i1
  br i1 %24, label %25, label %30

25:                                               ; preds = %20, %.critedge
  %26 = load ptr, ptr %5, align 8
  %27 = getelementptr inbounds i8, ptr %26, i64 12
  store i32 %2, ptr %27, align 4
  %28 = load ptr, ptr %5, align 8
  %29 = getelementptr inbounds i8, ptr %28, i64 16
  store i32 %3, ptr %29, align 8
  br label %45

30:                                               ; preds = %.critedge
  %31 = getelementptr inbounds i8, ptr %0, i64 40
  %32 = load i64, ptr %31, align 8
  %33 = icmp ne i64 %32, -1
  %34 = getelementptr inbounds i8, ptr %0, i64 32
  %35 = load i64, ptr %34, align 8
  %36 = icmp slt i64 %35, %32
  %.0.i = select i1 %33, i1 %36, i1 false
  br i1 %.0.i, label %44, label %45

37:                                               ; preds = %16
  %38 = load i8, ptr %19, align 1
  %39 = trunc i8 %38 to i1
  br i1 %39, label %40, label %44

40:                                               ; preds = %37
  %41 = getelementptr inbounds i8, ptr %6, i64 12
  store i32 %2, ptr %41, align 4
  %42 = load ptr, ptr %5, align 8
  %43 = getelementptr inbounds i8, ptr %42, i64 16
  store i32 %3, ptr %43, align 8
  br label %45

44:                                               ; preds = %30, %37, %4
  br label %45

45:                                               ; preds = %30, %44, %40, %25
  %.0 = phi i1 [ true, %25 ], [ false, %44 ], [ true, %40 ], [ true, %30 ]
  ret i1 %.0
}